; Function Attrs: mustprogress nounwind uwtable
define dso_local void @_ZN4llvm6Comdat10removeUserEPNS_12GlobalObjectE(ptr noundef nonnull align 8 dereferenceable(64) %0, ptr noundef %1) local_unnamed_addr #3 align 2 {
  %3 = getelementptr inbounds nuw i8, ptr %0, i64 16
  %4 = getelementptr inbounds i8, ptr %0, i64 24
  %5 = load ptr, ptr %4, align 8
  %6 = load ptr, ptr %3, align 8
  %7 = icmp eq ptr %5, %6
  br i1 %7, label %8, label %22

8:                                                ; preds = %2
  %9 = getelementptr inbounds i8, ptr %0, i64 36
  %10 = load i32, ptr %9, align 4
  %11 = zext i32 %10 to i64
  %12 = getelementptr inbounds ptr, ptr %6, i64 %11
  %.not1315.i.i = icmp eq i32 %10, 0
  br i1 %.not1315.i.i, label %_ZN4llvm15SmallPtrSetImplIPNS_12GlobalObjectEE5eraseES2_.exit, label %.lr.ph.i.i

.lr.ph.i.i:                                       ; preds = %8, %20
  %.01116.i.i = phi ptr [ %21, %20 ], [ %6, %8 ]
  %13 = load ptr, ptr %.01116.i.i, align 8
  %14 = icmp eq ptr %13, %1
  br i1 %14, label %15, label %20

15:                                               ; preds = %.lr.ph.i.i
  %16 = add i32 %10, -1
  store i32 %16, ptr %9, align 4
  %17 = zext i32 %16 to i64
  %18 = getelementptr inbounds ptr, ptr %6, i64 %17
  %19 = load ptr, ptr %18, align 8
  store ptr %19, ptr %.01116.i.i, align 8
  br label %_ZN4llvm15SmallPtrSetImplIPNS_12GlobalObjectEE5eraseES2_.exit

20:                                               ; preds = %.lr.ph.i.i
  %21 = getelementptr inbounds i8, ptr %.01116.i.i, i64 8
  %.not13.i.i = icmp eq ptr %21, %12
  br i1 %.not13.i.i, label %_ZN4llvm15SmallPtrSetImplIPNS_12GlobalObjectEE5eraseES2_.exit, label %.lr.ph.i.i, !llvm.loop !9

22:                                               ; preds = %2
  %23 = tail call noundef ptr @_ZNK4llvm19SmallPtrSetImplBase6doFindEPKv(ptr noundef nonnull align 8 dereferenceable(28) %3, ptr noundef %1) #7
  %.not.i.i = icmp eq ptr %23, null
  br i1 %.not.i.i, label %_ZN4llvm15SmallPtrSetImplIPNS_12GlobalObjectEE5eraseES2_.exit, label %24

24:                                               ; preds = %22
  store ptr inttoptr (i64 -2 to ptr), ptr %23, align 8
  %25 = getelementptr inbounds i8, ptr %0, i64 40
  %26 = load i32, ptr %25, align 8
  %27 = add i32 %26, 1
  store i32 %27, ptr %25, align 8
  br label %_ZN4llvm15SmallPtrSetImplIPNS_12GlobalObjectEE5eraseES2_.exit

_ZN4llvm15SmallPtrSetImplIPNS_12GlobalObjectEE5eraseES2_.exit: ; preds = %20, %8, %15, %22, %24
  ret void
}